target datalayout = "e-m:e-p270:32:32-p271:32:32-p272:64:64-i64:64-i128:128-f80:128-n8:16:32:64-S128"
target triple = "x86_64-pc-linux-gnu"

%struct.Expr = type { i32 }
%struct.BoolExpr = type { %struct.Expr, i32, ptr, i32 }
%struct.Node = type { i32 }

@.str.316 = private unnamed_addr constant [12 x i8] c"readfuncs.c\00", align 1
@.str.327 = private unnamed_addr constant [4 x i8] c"and\00", align 1
@.str.328 = private unnamed_addr constant [3 x i8] c"or\00", align 1
@.str.329 = private unnamed_addr constant [4 x i8] c"not\00", align 1
@.str.330 = private unnamed_addr constant [27 x i8] c"unrecognized boolop \22%.*s\22\00", align 1
@__func__._readBoolExpr = private unnamed_addr constant [14 x i8] c"_readBoolExpr\00", align 1

; Function Attrs: inlinehint nounwind uwtable
define internal ptr @newNode(i64 noundef %0, i32 noundef %1) #7 {
  %3 = alloca i64, align 8
  %4 = alloca i32, align 4
  %5 = alloca ptr, align 8
  store i64 %0, ptr %3, align 8
  store i32 %1, ptr %4, align 4
  call void @llvm.lifetime.start.p0(i64 8, ptr %5) #9
  %6 = load i64, ptr %3, align 8
  %7 = call ptr @palloc0(i64 noundef %6)
  store ptr %7, ptr %5, align 8
  %8 = load i32, ptr %4, align 4
  %9 = load ptr, ptr %5, align 8
  %10 = getelementptr inbounds nuw %struct.Node, ptr %9, i32 0, i32 0
  store i32 %8, ptr %10, align 4
  %11 = load ptr, ptr %5, align 8
  call void @llvm.lifetime.end.p0(i64 8, ptr %5) #9
  ret ptr %11
}

; Function Attrs: nounwind uwtable
define internal ptr @_readBoolExpr() #0 {
  %1 = alloca ptr, align 8
  %2 = alloca ptr, align 8
  %3 = alloca i32, align 4
  call void @llvm.lifetime.start.p0(i64 8, ptr %1) #9
  %4 = call ptr @newNode(i64 noundef 24, i32 noundef 21)
  store ptr %4, ptr %1, align 8
  call void @llvm.lifetime.start.p0(i64 8, ptr %2) #9
  call void @llvm.lifetime.start.p0(i64 4, ptr %3) #9
  %5 = call ptr @pg_strtok(ptr noundef %3)
  store ptr %5, ptr %2, align 8
  %6 = call ptr @pg_strtok(ptr noundef %3)
  store ptr %6, ptr %2, align 8
  %7 = load i32, ptr %3, align 4
  %8 = icmp eq i32 %7, 3
  br i1 %8, label %9, label %16

9:                                                ; preds = %0
  %10 = load ptr, ptr %2, align 8
  %11 = call i32 @strncmp(ptr noundef %10, ptr noundef @.str.327, i64 noundef 3) #11
  %12 = icmp eq i32 %11, 0
  br i1 %12, label %13, label %16

13:                                               ; preds = %9
  %14 = load ptr, ptr %1, align 8
  %15 = getelementptr inbounds nuw %struct.BoolExpr, ptr %14, i32 0, i32 1
  store i32 0, ptr %15, align 4
  br label %51

16:                                               ; preds = %9, %0
  %17 = load i32, ptr %3, align 4
  %18 = icmp eq i32 %17, 2
  br i1 %18, label %19, label %26

19:                                               ; preds = %16
  %20 = load ptr, ptr %2, align 8
  %21 = call i32 @strncmp(ptr noundef %20, ptr noundef @.str.328, i64 noundef 2) #11
  %22 = icmp eq i32 %21, 0
  br i1 %22, label %23, label %26

23:                                               ; preds = %19
  %24 = load ptr, ptr %1, align 8
  %25 = getelementptr inbounds nuw %struct.BoolExpr, ptr %24, i32 0, i32 1
  store i32 1, ptr %25, align 4
  br label %50

26:                                               ; preds = %19, %16
  %27 = load i32, ptr %3, align 4
  %28 = icmp eq i32 %27, 3
  br i1 %28, label %29, label %36

29:                                               ; preds = %26
  %30 = load ptr, ptr %2, align 8
  %31 = call i32 @strncmp(ptr noundef %30, ptr noundef @.str.329, i64 noundef 3) #11
  %32 = icmp eq i32 %31, 0
  br i1 %32, label %33, label %36

33:                                               ; preds = %29
  %34 = load ptr, ptr %1, align 8
  %35 = getelementptr inbounds nuw %struct.BoolExpr, ptr %34, i32 0, i32 1
  store i32 2, ptr %35, align 4
  br label %49

36:                                               ; preds = %29, %26
  br label %37

37:                                               ; preds = %36
  br i1 true, label %38, label %40

38:                                               ; preds = %37
  %39 = call zeroext i1 @errstart_cold(i32 noundef 21, ptr noundef null) #10
  br i1 %39, label %42, label %46

40:                                               ; preds = %37
  %41 = call zeroext i1 @errstart(i32 noundef 21, ptr noundef null)
  br i1 %41, label %42, label %46

42:                                               ; preds = %40, %38
  %43 = load i32, ptr %3, align 4
  %44 = load ptr, ptr %2, align 8
  %45 = call i32 (ptr, ...) @errmsg_internal(ptr noundef @.str.330, i32 noundef %43, ptr noundef %44)
  call void @errfinish(ptr noundef @.str.316, i32 noundef 295, ptr noundef @__func__._readBoolExpr)
  br label %46

46:                                               ; preds = %42, %40, %38
  unreachable

47:                                               ; No predecessors!
  br label %48

48:                                               ; preds = %47
  br label %49

49:                                               ; preds = %48, %33
  br label %50

50:                                               ; preds = %49, %23
  br label %51

51:                                               ; preds = %50, %13
  %52 = call ptr @pg_strtok(ptr noundef %3)
  store ptr %52, ptr %2, align 8
  %53 = call ptr @nodeRead(ptr noundef null, i32 noundef 0)
  %54 = load ptr, ptr %1, align 8
  %55 = getelementptr inbounds nuw %struct.BoolExpr, ptr %54, i32 0, i32 2
  store ptr %53, ptr %55, align 8
  %56 = call ptr @pg_strtok(ptr noundef %3)
  store ptr %56, ptr %2, align 8
  %57 = call ptr @pg_strtok(ptr noundef %3)
  store ptr %57, ptr %2, align 8
  %58 = load ptr, ptr %1, align 8
  %59 = getelementptr inbounds nuw %struct.BoolExpr, ptr %58, i32 0, i32 3
  store i32 -1, ptr %59, align 8
  %60 = load ptr, ptr %1, align 8
  call void @llvm.lifetime.end.p0(i64 4, ptr %3) #9
  call void @llvm.lifetime.end.p0(i64 8, ptr %2) #9
  call void @llvm.lifetime.end.p0(i64 8, ptr %1) #9
  ret ptr %60
}