; Function Attrs: nounwind uwtable
define internal fastcc noundef ptr @_readBoolExpr() unnamed_addr #0 {
  %1 = alloca i32, align 4
  %2 = tail call noundef ptr @palloc0(i64 noundef 24) #10
  store i32 21, ptr %2, align 4
  call void @llvm.lifetime.start.p0(i64 4, ptr nonnull %1) #10
  %3 = call ptr @pg_strtok(ptr noundef nonnull %1) #10
  %4 = call ptr @pg_strtok(ptr noundef nonnull %1) #10
  %5 = load i32, ptr %1, align 4
  switch i32 %5, label %.thread10 [
    i32 3, label %sub_0
    i32 2, label %sub_012
  ]

sub_0:                                            ; preds = %0
  %6 = load i8, ptr %4, align 1
  switch i8 %6, label %.thread10 [
    i8 97, label %sub_1
    i8 110, label %sub_117
  ]

sub_1:                                            ; preds = %sub_0
  %7 = getelementptr inbounds nuw i8, ptr %4, i64 1
  %8 = load i8, ptr %7, align 1
  %.not21 = icmp eq i8 %8, 110
  br i1 %.not21, label %.tail, label %.thread10

.tail:                                            ; preds = %sub_1
  %9 = getelementptr inbounds nuw i8, ptr %4, i64 2
  %10 = load i8, ptr %9, align 1
  %11 = icmp eq i8 %10, 100
  br i1 %11, label %24, label %.thread10

sub_012:                                          ; preds = %0
  %12 = load i8, ptr %4, align 1
  %.not = icmp eq i8 %12, 111
  br i1 %.not, label %.tail11, label %.thread10

.tail11:                                          ; preds = %sub_012
  %13 = getelementptr inbounds nuw i8, ptr %4, i64 1
  %14 = load i8, ptr %13, align 1
  %15 = icmp eq i8 %14, 114
  br i1 %15, label %24, label %.thread10

sub_117:                                          ; preds = %sub_0
  %16 = getelementptr inbounds nuw i8, ptr %4, i64 1
  %17 = load i8, ptr %16, align 1
  %.not23 = icmp eq i8 %17, 111
  br i1 %.not23, label %.tail15, label %.thread10

.tail15:                                          ; preds = %sub_117
  %18 = getelementptr inbounds nuw i8, ptr %4, i64 2
  %19 = load i8, ptr %18, align 1
  %20 = icmp eq i8 %19, 116
  br i1 %20, label %24, label %.thread10

.thread10:                                        ; preds = %sub_0, %.tail, %sub_1, %sub_117, %sub_012, %0, %.tail11, %.tail15
  %21 = call zeroext i1 @errstart_cold(i32 noundef 21, ptr noundef null) #11
  call void @llvm.assume(i1 %21)
  %22 = load i32, ptr %1, align 4
  %23 = call i32 (ptr, ...) @errmsg_internal(ptr noundef nonnull @.str.330, i32 noundef %22, ptr noundef %4) #10
  call void @errfinish(ptr noundef nonnull @.str.316, i32 noundef 295, ptr noundef nonnull @__func__._readBoolExpr) #10
  unreachable

24:                                               ; preds = %.tail15, %.tail11, %.tail
  %.sink = phi i32 [ 0, %.tail ], [ 1, %.tail11 ], [ 2, %.tail15 ]
  %25 = getelementptr inbounds nuw i8, ptr %2, i64 4
  store i32 %.sink, ptr %25, align 4
  %26 = call ptr @pg_strtok(ptr noundef nonnull %1) #10
  %27 = call ptr @nodeRead(ptr noundef null, i32 noundef 0) #10
  %28 = getelementptr inbounds nuw i8, ptr %2, i64 8
  store ptr %27, ptr %28, align 8
  %29 = call ptr @pg_strtok(ptr noundef nonnull %1) #10
  %30 = call ptr @pg_strtok(ptr noundef nonnull %1) #10
  %31 = getelementptr inbounds nuw i8, ptr %2, i64 16
  store i32 -1, ptr %31, align 8
  call void @llvm.lifetime.end.p0(i64 4, ptr nonnull %1) #10
  ret ptr %2
}